(dp0
I0
S'Biofuels Annual_Bangkok_Thailand_7-22-2016.txt'
p1
sI1
S'Parliament to Study Duty Deferral Program -Milk and Poultry Trade_Ottawa_Canada_8-9-2016.txt'
p2
sI2
S'Brazil Agricultural Economic Factsheet_Brasilia_Brazil_7-25-2016.txt'
p3
sI3
S'Russian Agricultural Policy and Situation Bi-Weekly Update - 10_Moscow_Russian Federation_7-20-2016.txt'
p4
sI4
S'Indian Government Rolls Out Single Window Import Clearances_New Delhi_India_8-1-2016.txt'
p5
sI5
S'FAS Canada Assists Small U.S. Exporter_Toronto_Canada_7-19-2016.txt'
p6
sI6
S'The Netherlands Horticulture Market_The Hague_Netherlands_8-3-2016.txt'
p7
sI7
S'Rice Price - Weekly_Bangkok_Thailand_7-20-2016.txt'
p8
sI8
S'Monsoon Update - Second Half Forecast Calls for More Rain_New Delhi_India_8-5-2016.txt'
p9
sI9
S'Retail Food Sector Report_Prague_Slovakia_8-2-2016.txt'
p10
sI10
S'Oilseeds Market Update_Vienna_EU-28_8-3-2016.txt'
p11
sI11
S'New Romanian law on food trading triggers adjustments in the supply _Bucharest_Romania_8-4-2016.txt'
p12
sI12
S'Grain and Feed Update_New Delhi_India_7-28-2016.txt'
p13
sI13
S'Strong Results at Vinexpo Hong Kong 2016 for U.S. Wines_Hong Kong_Hong Kong_7-20-2016.txt'
p14
sI14
S'Final Amendment on Food Product Standards and Labeling Regulations_New Delhi_India_8-8-2016.txt'
p15
sI15
S'SaborUSA Increases the Popularity of U.S. Food in Colombia_Bogota_Colombia_7-29-2016.txt'
p16
sI16
S'FAS Sofia Promotes U.S. Agricultural Products at the Biggest Culinar_Sofia_Bulgaria_7-15-2016.txt'
p17
sI17
S'Grain and Feed Update_Pretoria_South Africa - Republic of_7-28-2016.txt'
p18
sI18
S'WTO Notified Import Requirements for Poultry and Poultry Products _New Delhi_India_8-8-2016.txt'
p19
sI19
S'Biofuels Annual_Kuala Lumpur_Malaysia_7-27-2016.txt'
p20
sI20
S'New Biotechnology Regulations Maintain Status Quo _Lima_Peru_7-27-2016.txt'
p21
sI21
S'Biofuels Annual_Buenos Aires_Argentina_7-21-2016.txt'
p22
sI22
S'The WASABI - Hot News from Japan Vol. 12 Issue 6_Tokyo_Japan_7-22-2016.txt'
p23
sI23
S'GVN issues Decree sanctioning violations in plant quarantine_Hanoi_Vietnam_7-25-2016.txt'
p24
sI24
S'Grain and Feed Update_Astana_Kazakhstan - Republic of_7-15-2016.txt'
p25
sI25
S'FSSAI Invites Comments on Cereal and Cereal Products_New Delhi_India_8-8-2016.txt'
p26
sI26
S'Grain and Feed Update_Dhaka_Bangladesh_8-5-2016.txt'
p27
sI27
S'Oilseeds and Products Update_Beijing_China - Peoples Republic of_7-29-2016.txt'
p28
sI28
S'Poultry and Products Annual_Ottawa_Canada_8-4-2016.txt'
p29
sI29
S'Ministry of Agriculture Paves the Way for US Corn Imports_Brasilia_Brazil_8-4-2016.txt'
p30
sI30
S'Pork - 2016_New Delhi_India_7-21-2016.txt'
p31
sI31
S'Oilseeds and Products Update_Kiev_Ukraine_8-1-2016.txt'
p32
sI32
S'Biofuels Annual 2016_Prague_Czech Republic_5-10-2016.txt'
p33
sI33
S'Grain and Feed Update_Buenos Aires_Argentina_7-18-2016.txt'
p34
sI34
S'Regulations relating to the reduction of sodium in certain foodstuff_Pretoria_South Africa - Republic of_7-26-2016.txt'
p35
sI35
S'Food Processing Ingredients Bulgaria_Sofia_Bulgaria_8-3-2016.txt'
p36
sI36
S'EU Decides on New 500 Million Farm Crisis Aid Package _Brussels USEU_EU-28_7-19-2016.txt'
p37
sI37
S'Government Reforms its Infant Milk Formula Program Effective August _Cairo_Egypt_7-26-2016.txt'
p38
sI38
S'Retail Market Update_Sofia_Bulgaria_7-14-2016.txt'
p39
sI39
S'Cacao for Peace (CFP) Overview_Bogota_Colombia_7-28-2016.txt'
p40
sI40
S'2016 Potato Update_Seoul_Korea - Republic of_7-22-2016.txt'
p41
sI41
S'Turkey Composite Products Guidelines Subject to Veterinary Controls_Ankara_Turkey_8-3-2016.txt'
p42
sI42
S'Crop update - France weighs heavy on otherwise positive prospects_London_United Kingdom EU-27_7-20-2016.txt'
p43
sI43
S'Raisin Annual_Buenos Aires_Argentina_7-29-2016.txt'
p44
sI44
S'MARD phases out of growth promotion usage of antibiotics in feed_Hanoi_Vietnam_7-6-2016.txt'
p45
sI45
S'New Zealand Wine Sector Report for 2016_Wellington_New Zealand_8-10-2016.txt'
p46
sI46
S'Grain and Feed Update_Moscow_Russian Federation_7-21-2016.txt'
p47
sI47
S'Grain and Feed Update_Jakarta_Indonesia_7-28-2016.txt'
p48
sI48
S'Meat TRQs for Kazakhstan-2nd stage_Astana_Kazakhstan - Republic of_8-9-2016.txt'
p49
sI49
S'Oilseeds and Products Update_Jakarta_Indonesia_7-25-2016.txt'
p50
sI50
S'FAS Sofia Promotes U.S. Agricultural Products at a Big Culinary Fest_Sofia_Bulgaria_7-14-2016.txt'
p51
sI51
S'Draft SPS Measure on Dog Semen Notified to WTO_Moscow_Russian Federation_7-22-2016.txt'
p52
sI52
S'Biofuels Annual_Jakarta_Indonesia_7-28-2016.txt'
p53
sI53
S'Rice Price - Weekly_Bangkok_Thailand_7-19-2016.txt'
p54
sI54
S'Poultry and Products Annual_Beijing_China - Peoples Republic of_8-2-2016.txt'
p55
sI55
S'Renewed Temporary Export Ban on Some Hides and Skins_Moscow_Russian Federation_7-22-2016.txt'
p56
sI56
S'Raisin Annual_Ankara_Turkey_7-28-2016.txt'
p57
sI57
S'Nile Nuggets for July 2016_Cairo_Egypt_7-24-2016.txt'
p58
sI58
S'Draft SPS Measure to WTO_Astana_Kazakhstan - Republic of_8-9-2016.txt'
p59
sI59
S'Cotton and Products Update - July 2016_New Delhi_India_8-3-2016.txt'
p60
sI60
S'Turkish Livestock Support and Subsidies Update 2016_Ankara_Turkey_7-26-2016.txt'
p61
sI61
S'Jordan bans partially hydrogenated oil in dairy products_Amman_Jordan_8-4-2016.txt'
p62
sI62
S'2016 Seafood Products Market Brief_Seoul ATO_Korea - Republic of_8-2-2016.txt'
p63
sI63
S'Oilseeds and Products Annual 2016_Dakar_Senegal_7-19-2016.txt'
p64
sI64
S'Raisin Annual_Pretoria_South Africa - Republic of_7-26-2016.txt'
p65
sI65
S'Stone Fruit Report 2016_Berlin_Germany_7-21-2016.txt'
p66
s.